; Function Attrs: mustprogress uwtable
define void @_ZNK32pxrInternal_v0_24__pxrReserved__33PcpErrorInvalidInstanceTargetPath8ToStringB5cxx11Ev(ptr dead_on_unwind noalias writable sret(%"class.std::__cxx11::basic_string") align 8 %0, ptr noundef nonnull align 8 dereferenceable(152) %1) unnamed_addr #0 align 2 {
  %3 = alloca %"class.pxrInternal_v0_24__pxrReserved__::TfCallContext", align 8
  %4 = alloca %"class.pxrInternal_v0_24__pxrReserved__::TfCallContext", align 8
  %5 = getelementptr inbounds nuw i8, ptr %1, i64 120
  %6 = load i32, ptr %5, align 8
  switch i32 %6, label %7 [
    i32 1, label %.critedge
    i32 8, label %.critedge
  ]

7:                                                ; preds = %2
  store ptr @.str.32, ptr %4, align 8
  %8 = getelementptr inbounds nuw i8, ptr %4, i64 8
  store ptr @__func__._ZNK32pxrInternal_v0_24__pxrReserved__33PcpErrorInvalidInstanceTargetPath8ToStringB5cxx11Ev, ptr %8, align 8
  %9 = getelementptr inbounds nuw i8, ptr %4, i64 16
  store i64 528, ptr %9, align 8
  %10 = getelementptr inbounds nuw i8, ptr %4, i64 24
  store ptr @__PRETTY_FUNCTION__._ZNK32pxrInternal_v0_24__pxrReserved__33PcpErrorInvalidInstanceTargetPath8ToStringB5cxx11Ev, ptr %10, align 8
  %11 = getelementptr inbounds nuw i8, ptr %4, i64 32
  store i8 0, ptr %11, align 8
  %12 = call noundef zeroext i1 @_ZN32pxrInternal_v0_24__pxrReserved__21Tf_FailedVerifyHelperERKNS_13TfCallContextEPKcS4_(ptr noundef nonnull align 8 dereferenceable(33) %4, ptr noundef nonnull @.str.33, ptr noundef null)
  %.pre = load i32, ptr %5, align 8
  br label %.critedge

.critedge:                                        ; preds = %2, %2, %7
  %13 = phi i32 [ %6, %2 ], [ %6, %2 ], [ %.pre, %7 ]
  %14 = getelementptr inbounds nuw i8, ptr %1, i64 104
  %15 = call noundef ptr @_ZNK32pxrInternal_v0_24__pxrReserved__7SdfPath7GetTextEv(ptr noundef nonnull align 4 dereferenceable(8) %14)
  %16 = getelementptr inbounds nuw i8, ptr %1, i64 112
  %17 = call noundef ptr @_ZNK32pxrInternal_v0_24__pxrReserved__7SdfPath7GetTextEv(ptr noundef nonnull align 4 dereferenceable(8) %16)
  call void @llvm.lifetime.start.p0(i64 40, ptr nonnull %3)
  %18 = getelementptr inbounds i8, ptr %1, i64 136
  %19 = load ptr, ptr %18, align 8
  %.not.i.i.i.i.i = icmp eq ptr %19, null
  br i1 %.not.i.i.i.i.i, label %_ZNK32pxrInternal_v0_24__pxrReserved__15TfWeakPtrFacadeINS_9TfWeakPtrENS_8SdfLayerEE13_FetchPointerEv.exit.thread.i, label %_ZNK32pxrInternal_v0_24__pxrReserved__8TfRefPtrINS_10Tf_RemnantEEptEv.exit.i.i.i.i

_ZNK32pxrInternal_v0_24__pxrReserved__8TfRefPtrINS_10Tf_RemnantEEptEv.exit.i.i.i.i: ; preds = %.critedge
  %20 = getelementptr inbounds nuw i8, ptr %1, i64 128
  %21 = getelementptr inbounds nuw i8, ptr %19, i64 14
  %22 = load i8, ptr %21, align 2
  %23 = trunc i8 %22 to i1
  %24 = load ptr, ptr %20, align 8
  %.not.i = icmp ne ptr %24, null
  %or.cond.not.i = select i1 %23, i1 %.not.i, i1 false
  br i1 %or.cond.not.i, label %_ZNK32pxrInternal_v0_24__pxrReserved__15TfWeakPtrFacadeINS_9TfWeakPtrENS_8SdfLayerEEptEv.exit, label %_ZNK32pxrInternal_v0_24__pxrReserved__15TfWeakPtrFacadeINS_9TfWeakPtrENS_8SdfLayerEE13_FetchPointerEv.exit.thread.i

_ZNK32pxrInternal_v0_24__pxrReserved__15TfWeakPtrFacadeINS_9TfWeakPtrENS_8SdfLayerEE13_FetchPointerEv.exit.thread.i: ; preds = %_ZNK32pxrInternal_v0_24__pxrReserved__8TfRefPtrINS_10Tf_RemnantEEptEv.exit.i.i.i.i, %.critedge
  store ptr @.str.102, ptr %3, align 8
  %25 = getelementptr inbounds nuw i8, ptr %3, i64 8
  store ptr @__func__._ZNK32pxrInternal_v0_24__pxrReserved__15TfWeakPtrFacadeINS_9TfWeakPtrENS_8SdfLayerEEptEv, ptr %25, align 8
  %26 = getelementptr inbounds nuw i8, ptr %3, i64 16
  store i64 198, ptr %26, align 8
  %27 = getelementptr inbounds nuw i8, ptr %3, i64 24
  store ptr @__PRETTY_FUNCTION__._ZNK32pxrInternal_v0_24__pxrReserved__15TfWeakPtrFacadeINS_9TfWeakPtrENS_8SdfLayerEEptEv, ptr %27, align 8
  %28 = getelementptr inbounds nuw i8, ptr %3, i64 32
  store i8 0, ptr %28, align 8
  call void @_ZN32pxrInternal_v0_24__pxrReserved__40Tf_PostNullSmartPtrDereferenceFatalErrorERKNS_13TfCallContextEPKc(ptr noundef nonnull align 8 dereferenceable(33) %3, ptr noundef nonnull @_ZTSN32pxrInternal_v0_24__pxrReserved__9TfWeakPtrINS_8SdfLayerEEE) #21
  unreachable

_ZNK32pxrInternal_v0_24__pxrReserved__15TfWeakPtrFacadeINS_9TfWeakPtrENS_8SdfLayerEEptEv.exit: ; preds = %_ZNK32pxrInternal_v0_24__pxrReserved__8TfRefPtrINS_10Tf_RemnantEEptEv.exit.i.i.i.i
  %29 = icmp eq i32 %13, 1
  %30 = select i1 %29, ptr @.str.35, ptr @.str.36
  call void @llvm.lifetime.end.p0(i64 40, ptr nonnull %3)
  %31 = call noundef nonnull align 8 dereferenceable(32) ptr @_ZNK32pxrInternal_v0_24__pxrReserved__8SdfLayer13GetIdentifierB5cxx11Ev(ptr noundef nonnull align 8 dereferenceable(557) %24)
  %32 = call noundef ptr @_ZNKSt7__cxx1112basic_stringIcSt11char_traitsIcESaIcEE5c_strEv(ptr noundef nonnull align 8 dereferenceable(32) %31) #19
  call void (ptr, ptr, ...) @_ZN32pxrInternal_v0_24__pxrReserved__14TfStringPrintfB5cxx11EPKcz(ptr dead_on_unwind writable sret(%"class.std::__cxx11::basic_string") align 8 %0, ptr noundef nonnull @.str.34, ptr noundef nonnull %30, ptr noundef %15, ptr noundef %17, ptr noundef %32)
  ret void
}